target datalayout = "e-m:e-p270:32:32-p271:32:32-p272:64:64-i64:64-i128:128-f80:128-n8:16:32:64-S128"
target triple = "x86_64-pc-linux-gnu"

%"class.std::basic_ostream" = type { ptr, %"class.std::basic_ios" }
%"class.std::basic_ios" = type { %"class.std::ios_base", ptr, i8, i8, ptr, ptr, ptr, ptr }
%"class.std::ios_base" = type { ptr, i64, i64, i32, i32, i32, ptr, %"struct.std::ios_base::_Words", [8 x %"struct.std::ios_base::_Words"], i32, ptr, %"class.std::locale" }
%"struct.std::ios_base::_Words" = type { ptr, i64 }
%"class.std::locale" = type { ptr }
%"struct.std::_Vector_base.1" = type { %"struct.std::_Vector_base<const Fact *, std::allocator<const Fact *>>::_Vector_impl" }
%"struct.std::_Vector_base<const Fact *, std::allocator<const Fact *>>::_Vector_impl" = type { %"struct.std::_Vector_base<const Fact *, std::allocator<const Fact *>>::_Vector_impl_data" }
%"struct.std::_Vector_base<const Fact *, std::allocator<const Fact *>>::_Vector_impl_data" = type { ptr, ptr, ptr }

@_ZSt4cout = external global %"class.std::basic_ostream", align 8

; Function Attrs: mustprogress nounwind uwtable
define linkonce_odr dso_local noundef nonnull align 8 dereferenceable(8) ptr @_ZNKSt6vectorIPK4FactSaIS2_EEixEm(ptr noundef nonnull align 8 dereferenceable(24) %0, i64 noundef %1) #4 comdat align 2 {
  %3 = alloca ptr, align 8
  %4 = alloca i64, align 8
  store ptr %0, ptr %3, align 8
  store i64 %1, ptr %4, align 8
  %5 = load ptr, ptr %3, align 8
  %6 = getelementptr inbounds %"struct.std::_Vector_base.1", ptr %5, i32 0, i32 0
  %7 = getelementptr inbounds %"struct.std::_Vector_base<const Fact *, std::allocator<const Fact *>>::_Vector_impl_data", ptr %6, i32 0, i32 0
  %8 = load ptr, ptr %7, align 8
  %9 = load i64, ptr %4, align 8
  %10 = getelementptr inbounds ptr, ptr %8, i64 %9
  ret ptr %10
}

; Function Attrs: mustprogress nounwind uwtable
define linkonce_odr dso_local noundef i64 @_ZNKSt6vectorIPK4FactSaIS2_EE4sizeEv(ptr noundef nonnull align 8 dereferenceable(24) %0) #4 comdat align 2 {
  %2 = alloca ptr, align 8
  store ptr %0, ptr %2, align 8
  %3 = load ptr, ptr %2, align 8
  %4 = getelementptr inbounds %"struct.std::_Vector_base.1", ptr %3, i32 0, i32 0
  %5 = getelementptr inbounds %"struct.std::_Vector_base<const Fact *, std::allocator<const Fact *>>::_Vector_impl_data", ptr %4, i32 0, i32 1
  %6 = load ptr, ptr %5, align 8
  %7 = getelementptr inbounds %"struct.std::_Vector_base.1", ptr %3, i32 0, i32 0
  %8 = getelementptr inbounds %"struct.std::_Vector_base<const Fact *, std::allocator<const Fact *>>::_Vector_impl_data", ptr %7, i32 0, i32 0
  %9 = load ptr, ptr %8, align 8
  %10 = ptrtoint ptr %6 to i64
  %11 = ptrtoint ptr %9 to i64
  %12 = sub i64 %10, %11
  %13 = sdiv exact i64 %12, 8
  ret i64 %13
}

; Function Attrs: mustprogress uwtable
define dso_local void @_Z11print_factsRKSt6vectorIPK4FactSaIS2_EE(ptr noundef nonnull align 8 dereferenceable(24) %0) #6 {
  %2 = alloca ptr, align 8
  %3 = alloca i64, align 8
  %4 = alloca ptr, align 8
  store ptr %0, ptr %2, align 8
  store i64 0, ptr %3, align 8
  br label %5

5:                                                ; preds = %19, %1
  %6 = load i64, ptr %3, align 8
  %7 = load ptr, ptr %2, align 8
  %8 = call noundef i64 @_ZNKSt6vectorIPK4FactSaIS2_EE4sizeEv(ptr noundef nonnull align 8 dereferenceable(24) %7) #3
  %9 = icmp ult i64 %6, %8
  br i1 %9, label %10, label %22

10:                                               ; preds = %5
  %11 = load ptr, ptr %2, align 8
  %12 = load i64, ptr %3, align 8
  %13 = call noundef nonnull align 8 dereferenceable(8) ptr @_ZNKSt6vectorIPK4FactSaIS2_EEixEm(ptr noundef nonnull align 8 dereferenceable(24) %11, i64 noundef %12) #3
  %14 = load ptr, ptr %13, align 8
  store ptr %14, ptr %4, align 8
  %15 = load ptr, ptr %4, align 8
  %16 = load ptr, ptr %15, align 8
  %17 = getelementptr inbounds ptr, ptr %16, i64 14
  %18 = load ptr, ptr %17, align 8
  call void %18(ptr noundef nonnull align 8 dereferenceable(12) %15, ptr noundef nonnull align 8 dereferenceable(8) @_ZSt4cout, ptr noundef null)
  br label %19

19:                                               ; preds = %10
  %20 = load i64, ptr %3, align 8
  %21 = add i64 %20, 1
  store i64 %21, ptr %3, align 8
  br label %5, !llvm.loop !20

22:                                               ; preds = %5
  ret void
}