; Function Attrs: mustprogress uwtable
define dso_local void @_Z11print_factsRKSt6vectorIPK4FactSaIS2_EE(ptr nocapture noundef nonnull readonly align 8 dereferenceable(24) %0) local_unnamed_addr #8 {
  %2 = getelementptr inbounds i8, ptr %0, i64 8
  %3 = load ptr, ptr %2, align 8
  %4 = load ptr, ptr %0, align 8
  %.not = icmp eq ptr %3, %4
  br i1 %.not, label %._crit_edge, label %.lr.ph

.lr.ph:                                           ; preds = %1, %.lr.ph
  %5 = phi ptr [ %13, %.lr.ph ], [ %4, %1 ]
  %.05 = phi i64 [ %11, %.lr.ph ], [ 0, %1 ]
  %6 = getelementptr inbounds ptr, ptr %5, i64 %.05
  %7 = load ptr, ptr %6, align 8
  %8 = load ptr, ptr %7, align 8
  %9 = getelementptr inbounds i8, ptr %8, i64 112
  %10 = load ptr, ptr %9, align 8
  tail call void %10(ptr noundef nonnull align 8 dereferenceable(12) %7, ptr noundef nonnull align 8 dereferenceable(8) @_ZSt4cout, ptr noundef null)
  %11 = add nuw i64 %.05, 1
  %12 = load ptr, ptr %2, align 8
  %13 = load ptr, ptr %0, align 8
  %14 = ptrtoint ptr %12 to i64
  %15 = ptrtoint ptr %13 to i64
  %16 = sub i64 %14, %15
  %17 = ashr exact i64 %16, 3
  %18 = icmp ult i64 %11, %17
  br i1 %18, label %.lr.ph, label %._crit_edge, !llvm.loop !20

._crit_edge:                                      ; preds = %.lr.ph, %1
  ret void
}